; Function Attrs: mustprogress uwtable
define noundef range(i32 1, 3) i32 @_ZN10open_spiel9dou_dizhu21GetTrioCombKickerTypeEi(i32 noundef %0) local_unnamed_addr #4 personality ptr @__gxx_personality_v0 {
  %2 = alloca %"class.std::__cxx11::basic_string", align 8
  %3 = alloca %"class.std::allocator", align 1
  %4 = add i32 %0, -133
  %or.cond = icmp ult i32 %4, 182
  br i1 %or.cond, label %19, label %5

5:                                                ; preds = %1
  %6 = add i32 %0, -315
  %or.cond3 = icmp ult i32 %6, 156
  br i1 %or.cond3, label %19, label %7

7:                                                ; preds = %5
  %8 = add i32 %0, -516
  %or.cond5 = icmp ult i32 %8, 22588
  br i1 %or.cond5, label %19, label %9

9:                                                ; preds = %7
  %10 = add i32 %0, -23104
  %or.cond7 = icmp ult i32 %10, 2939
  br i1 %or.cond7, label %19, label %11

11:                                               ; preds = %9
  call void @_ZNSaIcEC1Ev(ptr noundef nonnull align 1 dereferenceable(1) %3) #19
  invoke void @_ZNSt7__cxx1112basic_stringIcSt11char_traitsIcESaIcEEC2IS3_EEPKcRKS3_(ptr noundef nonnull align 8 dereferenceable(32) %2, ptr noundef nonnull @.str.33, ptr noundef nonnull align 1 dereferenceable(1) %3)
          to label %12 unwind label %14

12:                                               ; preds = %11
  invoke void @_ZN10open_spiel15SpielFatalErrorERKNSt7__cxx1112basic_stringIcSt11char_traitsIcESaIcEEE(ptr noundef nonnull align 8 dereferenceable(32) %2) #20
          to label %13 unwind label %16

13:                                               ; preds = %12
  unreachable

14:                                               ; preds = %11
  %15 = landingpad { ptr, i32 }
          cleanup
  br label %18

16:                                               ; preds = %12
  %17 = landingpad { ptr, i32 }
          cleanup
  call void @_ZNSt7__cxx1112basic_stringIcSt11char_traitsIcESaIcEED1Ev(ptr noundef nonnull align 8 dereferenceable(32) %2) #19
  br label %18

18:                                               ; preds = %16, %14
  %.pn = phi { ptr, i32 } [ %17, %16 ], [ %15, %14 ]
  call void @_ZNSaIcED1Ev(ptr noundef nonnull align 1 dereferenceable(1) %3) #19
  resume { ptr, i32 } %.pn

19:                                               ; preds = %9, %7, %5, %1
  %.018 = phi i32 [ 1, %1 ], [ 2, %5 ], [ 1, %7 ], [ 2, %9 ]
  ret i32 %.018
}